###############################################################################
#                                                                             #
# IAR ELF Linker V6.30.4.53288/W32 for ARM              18/Jul/2014  06:40:32 #
# Copyright 2007-2011 IAR Systems AB.                                         #
#                                                                             #
#    Output file  =  C:\Users\sony\Desktop\0717\bin\Flash\Exe\0717.out        #
#    Map file     =  C:\Users\sony\Desktop\0717\bin\Flash\List\0717.map       #
#    Command line =  C:\Users\sony\Desktop\0717\bin\Flash\Obj\LQ12864.o       #
#                    C:\Users\sony\Desktop\0717\bin\Flash\Obj\PID.o           #
#                    C:\Users\sony\Desktop\0717\bin\Flash\Obj\adc.o           #
#                    C:\Users\sony\Desktop\0717\bin\Flash\Obj\button.o        #
#                    C:\Users\sony\Desktop\0717\bin\Flash\Obj\common.o        #
#                    C:\Users\sony\Desktop\0717\bin\Flash\Obj\control.o       #
#                    C:\Users\sony\Desktop\0717\bin\Flash\Obj\crt0.o          #
#                    C:\Users\sony\Desktop\0717\bin\Flash\Obj\decoder.o       #
#                    C:\Users\sony\Desktop\0717\bin\Flash\Obj\delay.o         #
#                    C:\Users\sony\Desktop\0717\bin\Flash\Obj\gpio.o          #
#                    C:\Users\sony\Desktop\0717\bin\Flash\Obj\i2c.o           #
#                    C:\Users\sony\Desktop\0717\bin\Flash\Obj\isr.o           #
#                    C:\Users\sony\Desktop\0717\bin\Flash\Obj\light.o         #
#                    C:\Users\sony\Desktop\0717\bin\Flash\Obj\main.o          #
#                    C:\Users\sony\Desktop\0717\bin\Flash\Obj\pit.o           #
#                    C:\Users\sony\Desktop\0717\bin\Flash\Obj\pwm.o           #
#                    C:\Users\sony\Desktop\0717\bin\Flash\Obj\start.o         #
#                    C:\Users\sony\Desktop\0717\bin\Flash\Obj\sysinit.o       #
#                    C:\Users\sony\Desktop\0717\bin\Flash\Obj\uart.o          #
#                    C:\Users\sony\Desktop\0717\bin\Flash\Obj\vectors.o       #
#                    C:\Users\sony\Desktop\0717\bin\Flash\Obj\wdog.o          #
#                    --redirect _Printf=_PrintfFull --redirect                #
#                    _Scanf=_ScanfFull -o C:\Users\sony\Desktop\0717\bin\Flas #
#                    h\Exe\0717.out --map C:\Users\sony\Desktop\0717\bin\Flas #
#                    h\List\0717.map --config C:\Users\sony\Desktop\0717\src\ #
#                    Project_Settings\Link\Pflash.icf --semihosting --entry   #
#                    __iar_program_start --vfe                                #
#                                                                             #
#                                                                             #
###############################################################################

*******************************************************************************
*** RUNTIME MODEL ATTRIBUTES
***

CppFlavor       = *
__SystemLibrary = DLib


*******************************************************************************
*** PLACEMENT SUMMARY
***

"A1":  place at 0x00000000 { ro section .intvec };
"A2":  place at 0x00000410 { ro section .noinit };
"P1":  place in [from 0x00000000 to 0x00080000] { ro, block CodeRelocate };
"P2":  place in [from 0x1fff0410 to 0x20010000] {
          rw, block CodeRelocateRam, block CSTACK, block HEAP };

  Section              Kind        Address    Size  Object
  -------              ----        -------    ----  ------
"A1":                                        0x410
  .intvec              const    0x00000000   0x410  vectors.o [1]
                              - 0x00000410   0x410

"A2":                                         0x3c
  .noinit              ro code  0x00000410    0x3c  crt0.o [1]
                              - 0x0000044c    0x3c

"P1":                                       0x8564
  .text                ro code  0x0000044c  0x2bcc  main.o [1]
  .text                ro code  0x00003018    0xa8  PID.o [1]
  .text                ro code  0x000030c0   0x614  LQ12864.o [1]
  .text                ro code  0x000036d4   0x390  button.o [1]
  .text                ro code  0x00003a64    0x48  delay.o [1]
  .text                ro code  0x00003aac    0xd8  FltMul.o [4]
  .text                ro code  0x00003b84    0x44  FltToS32.o [4]
  .text                ro code  0x00003bc8    0x4e  FltToDbl.o [4]
  .text                ro code  0x00003c16    0x22  zero_init3.o [5]
  .text                ro code  0x00003c38    0xe8  DblAdd.o [4]
  .text                ro code  0x00003d20    0x90  DblToFlt.o [4]
  .text                ro code  0x00003db0  0x2a64  control.o [1]
  .text                ro code  0x00006814   0x20c  uart.o [1]
  .text                ro code  0x00006a20   0x6d4  pwm.o [1]
  .text                ro code  0x000070f4    0xb8  pit.o [1]
  .text                ro code  0x000071ac    0x2e  I32ToFlt.o [4]
  .text                ro code  0x000071da     0x2  vectors.o [1]
  .text                ro code  0x000071dc    0xe6  FltSub.o [4]
  .text                ro code  0x000072c4    0x84  FltAdd.o [4]
  .text                ro code  0x00007348    0xa2  gpio.o [1]
  .text                ro code  0x000073ec   0x16c  DblSub.o [4]
  .text                ro code  0x00007558   0x1dc  adc.o [1]
  .text                ro code  0x00007734     0x6  ABImemclr4.o [5]
  .text                ro code  0x0000773c   0x246  DblDiv.o [4]
  .text                ro code  0x00007984    0x2e  DblCmpGe.o [4]
  .text                ro code  0x000079b4    0x2e  DblCmpLe.o [4]
  .text                ro code  0x000079e4    0xfc  FltDiv.o [4]
  .text                ro code  0x00007ae0    0xb4  common.o [1]
  .text                ro code  0x00007b94    0x32  ABImemset48.o [5]
  .rodata              const    0x00007bc8   0x5f0  LQ12864.o [1]
  Veneer               ro code  0x000081b8     0x8  - Linker created -
  .text                ro code  0x000081c0   0x210  sysinit.o [1]
  .text                ro code  0x000083d0   0x1b4  isr.o [1]
  .text                ro code  0x00008584    0xb0  start.o [1]
  .text                ro code  0x00008634    0x38  wdog.o [1]
  .data_init                    0x0000866c    0x74  <Block>
    Initializer bytes  ro data  0x0000866c    0x74  <for .data-1>
  CodeRelocate                  0x000086e0    0x4c  <Block>
    Initializer bytes  ro data  0x000086e0    0x4c  <for CodeRelocateRam-1>
  .text                ro code  0x0000872c    0x2c  data_init3.o [5]
  .iar.init_table      const    0x00008758    0x10  - Linker created -
  .text                ro code  0x00008768    0x16  cmain.o [5]
  .text                ro code  0x0000877e     0x4  low_level_init.o [3]
  .text                ro code  0x00008782     0x4  exit.o [3]
  .text                ro code  0x00008788     0xa  cexit.o [5]
  .text                ro code  0x00008794    0x14  exit.o [6]
  .rodata              const    0x000087a8     0xc  main.o [1]
  .rodata              const    0x000087b4     0xc  main.o [1]
  .rodata              const    0x000087c0     0xc  main.o [1]
  .rodata              const    0x000087cc     0xc  main.o [1]
  .rodata              const    0x000087d8     0xc  main.o [1]
  .rodata              const    0x000087e4     0xc  main.o [1]
  .rodata              const    0x000087f0     0xc  main.o [1]
  .rodata              const    0x000087fc     0xc  main.o [1]
  .rodata              const    0x00008808     0xc  main.o [1]
  .text                ro code  0x00008814     0xc  cstartup_M.o [5]
  .rodata              const    0x00008820     0x8  main.o [1]
  .rodata              const    0x00008828     0x8  main.o [1]
  .rodata              const    0x00008830     0x8  main.o [1]
  .rodata              const    0x00008838     0x8  main.o [1]
  .rodata              const    0x00008840     0x8  main.o [1]
  .rodata              const    0x00008848     0x8  main.o [1]
  .rodata              const    0x00008850     0x8  main.o [1]
  .rodata              const    0x00008858     0x8  main.o [1]
  .rodata              const    0x00008860     0x8  main.o [1]
  .rodata              const    0x00008868     0x8  main.o [1]
  .rodata              const    0x00008870     0x8  main.o [1]
  .rodata              const    0x00008878     0x8  main.o [1]
  .rodata              const    0x00008880     0x8  main.o [1]
  .rodata              const    0x00008888     0x8  main.o [1]
  .rodata              const    0x00008890     0x8  main.o [1]
  .rodata              const    0x00008898     0x8  main.o [1]
  .rodata              const    0x000088a0     0x8  main.o [1]
  .rodata              const    0x000088a8     0x8  main.o [1]
  .rodata              const    0x000088b0     0x8  main.o [1]
  .rodata              const    0x000088b8     0x8  main.o [1]
  .rodata              const    0x000088c0     0x8  main.o [1]
  .rodata              const    0x000088c8     0x8  main.o [1]
  .rodata              const    0x000088d0     0x8  main.o [1]
  .rodata              const    0x000088d8     0x8  main.o [1]
  .rodata              const    0x000088e0     0x8  main.o [1]
  .rodata              const    0x000088e8     0x8  main.o [1]
  .rodata              const    0x000088f0     0x8  main.o [1]
  .rodata              const    0x000088f8     0x8  main.o [1]
  .rodata              const    0x00008900     0x8  main.o [1]
  .rodata              const    0x00008908     0x8  main.o [1]
  .rodata              const    0x00008910     0x8  main.o [1]
  .rodata              const    0x00008918     0x8  main.o [1]
  .rodata              const    0x00008920     0x8  main.o [1]
  .rodata              const    0x00008928     0x8  main.o [1]
  .rodata              const    0x00008930     0x8  main.o [1]
  .rodata              const    0x00008938     0x8  main.o [1]
  .rodata              const    0x00008940     0x8  main.o [1]
  .rodata              const    0x00008948     0x8  main.o [1]
  .rodata              const    0x00008950     0x8  main.o [1]
  .rodata              const    0x00008958     0x8  main.o [1]
  .rodata              const    0x00008960     0x8  main.o [1]
  .rodata              const    0x00008968     0x8  main.o [1]
  .rodata              const    0x00008970     0x8  main.o [1]
  .rodata              const    0x00008978     0x8  main.o [1]
  .rodata              const    0x00008980     0x8  main.o [1]
  .rodata              const    0x00008988     0x8  main.o [1]
  .rodata              const    0x00008990     0x8  main.o [1]
  .rodata              const    0x00008998     0x8  main.o [1]
  .rodata              const    0x000089a0     0x8  main.o [1]
  .rodata              const    0x000089a8     0x8  main.o [1]
  .rodata              const    0x000089b0     0x0  bwt_init3c.o [5]
                              - 0x000089b0  0x8564

"P2", part 1 of 2:                            0xc0
  .data                         0x1fff0410    0x74  <Block>
    .data-1                     0x1fff0410    0x74  <Init block>
      .data            inited   0x1fff0410     0x4  PID.o [1]
      .data            inited   0x1fff0414     0x2  control.o [1]
      .data            inited   0x1fff0416     0x2  control.o [1]
      .data            inited   0x1fff0418     0x2  control.o [1]
      .data            inited   0x1fff041a     0x2  control.o [1]
      .data            inited   0x1fff041c     0x2  control.o [1]
      .data            inited   0x1fff041e     0x2  control.o [1]
      .data            inited   0x1fff0420     0x2  control.o [1]
      .data            inited   0x1fff0422     0x1  control.o [1]
      .data            inited   0x1fff0423     0x1  control.o [1]
      .data            inited   0x1fff0424     0x2  control.o [1]
      .data            inited   0x1fff0426     0x2  control.o [1]
      .data            inited   0x1fff0428     0x4  control.o [1]
      .data            inited   0x1fff042c     0x4  control.o [1]
      .data            inited   0x1fff0430     0x2  control.o [1]
      .data            inited   0x1fff0432     0x2  control.o [1]
      .data            inited   0x1fff0434     0x2  control.o [1]
      .data            inited   0x1fff0436     0x1  control.o [1]
      .data            inited   0x1fff0437     0x1  control.o [1]
      .data            inited   0x1fff0438     0x1  control.o [1]
      .data            inited   0x1fff0439     0x1  control.o [1]
      .data            inited   0x1fff043c     0x4  control.o [1]
      .data            inited   0x1fff0440     0x4  control.o [1]
      .data            inited   0x1fff0444     0x2  control.o [1]
      .data            inited   0x1fff0446     0x2  isr.o [1]
      .data            inited   0x1fff0448     0x1  main.o [1]
      .data            inited   0x1fff044a     0x2  main.o [1]
      .data            inited   0x1fff044c     0x2  main.o [1]
      .data            inited   0x1fff0450     0x4  main.o [1]
      .data            inited   0x1fff0454     0x4  main.o [1]
      .data            inited   0x1fff0458     0x4  main.o [1]
      .data            inited   0x1fff045c     0x4  main.o [1]
      .data            inited   0x1fff0460     0x4  main.o [1]
      .data            inited   0x1fff0464     0x4  main.o [1]
      .data            inited   0x1fff0468     0x4  main.o [1]
      .data            inited   0x1fff046c     0x2  main.o [1]
      .data            inited   0x1fff046e     0x2  main.o [1]
      .data            inited   0x1fff0470     0x2  main.o [1]
      .data            inited   0x1fff0472     0x2  main.o [1]
      .data            inited   0x1fff0474     0x2  main.o [1]
      .data            inited   0x1fff0476     0x2  main.o [1]
      .data            inited   0x1fff0478     0x2  main.o [1]
      .data            inited   0x1fff047a     0x1  main.o [1]
      .data            inited   0x1fff047b     0x1  main.o [1]
      .data            inited   0x1fff047c     0x1  main.o [1]
      .data            inited   0x1fff047d     0x1  main.o [1]
      .data            inited   0x1fff047e     0x1  main.o [1]
      .data            inited   0x1fff0480     0x4  main.o [1]
  CodeRelocateRam               0x1fff0484    0x4c  <Block>
    CodeRelocateRam-1           0x1fff0484    0x4c  <Init block>
      .textrw          inited   0x1fff0484    0x4c  sysinit.o [1]
                              - 0x1fff04d0    0xc0

"P2", part 2 of 2:                           0x436
  .bss                          0x1fff04d0   0x436  <Block>
    .bss               zero     0x1fff04d0     0x8  control.o [1]
    .bss               zero     0x1fff04d8    0x1c  PID.o [1]
    .bss               zero     0x1fff04f4     0x4  PID.o [1]
    .bss               zero     0x1fff04f8     0x4  PID.o [1]
    .bss               zero     0x1fff04fc    0x10  adc.o [1]
    .bss               zero     0x1fff050c     0x4  control.o [1]
    .bss               zero     0x1fff0510     0x4  control.o [1]
    .bss               zero     0x1fff0514    0xc8  control.o [1]
    .bss               zero     0x1fff05dc    0xc8  control.o [1]
    .bss               zero     0x1fff06a4     0x4  control.o [1]
    .bss               zero     0x1fff06a8     0x4  control.o [1]
    .bss               zero     0x1fff06ac     0x4  control.o [1]
    .bss               zero     0x1fff06b0    0x80  isr.o [1]
    .bss               zero     0x1fff0730    0x80  isr.o [1]
    .bss               zero     0x1fff07b0     0x4  isr.o [1]
    .bss               zero     0x1fff07b4     0x4  main.o [1]
    .bss               zero     0x1fff07b8     0x4  main.o [1]
    .bss               zero     0x1fff07bc     0x4  main.o [1]
    .bss               zero     0x1fff07c0     0x4  pwm.o [1]
    .bss               zero     0x1fff07c4     0x4  pwm.o [1]
    .bss               zero     0x1fff07c8     0x4  pwm.o [1]
    .bss               zero     0x1fff07cc     0x4  sysinit.o [1]
    .bss               zero     0x1fff07d0     0x4  sysinit.o [1]
    .bss               zero     0x1fff07d4     0x4  sysinit.o [1]
    .bss               zero     0x1fff07d8     0x2  control.o [1]
    .bss               zero     0x1fff07da     0x2  control.o [1]
    .bss               zero     0x1fff07dc     0x2  control.o [1]
    .bss               zero     0x1fff07de     0x2  control.o [1]
    .bss               zero     0x1fff07e0     0x2  control.o [1]
    .bss               zero     0x1fff07e2     0x2  control.o [1]
    .bss               zero     0x1fff07e4     0x2  control.o [1]
    .bss               zero     0x1fff07e6     0x2  control.o [1]
    .bss               zero     0x1fff07e8     0x2  control.o [1]
    .bss               zero     0x1fff07ea     0x2  control.o [1]
    .bss               zero     0x1fff07ec     0x2  control.o [1]
    .bss               zero     0x1fff07ee     0x2  control.o [1]
    .bss               zero     0x1fff07f0     0x2  control.o [1]
    .bss               zero     0x1fff07f2     0x2  control.o [1]
    .bss               zero     0x1fff07f4     0x2  control.o [1]
    .bss               zero     0x1fff07f6     0x2  control.o [1]
    .bss               zero     0x1fff07f8     0x2  control.o [1]
    .bss               zero     0x1fff07fa     0x2  control.o [1]
    .bss               zero     0x1fff07fc     0x2  control.o [1]
    .bss               zero     0x1fff07fe     0x2  control.o [1]
    .bss               zero     0x1fff0800     0x2  control.o [1]
    .bss               zero     0x1fff0802     0x2  control.o [1]
    .bss               zero     0x1fff0804     0x2  control.o [1]
    .bss               zero     0x1fff0806     0x2  control.o [1]
    .bss               zero     0x1fff0808     0x2  control.o [1]
    .bss               zero     0x1fff080a     0x2  control.o [1]
    .bss               zero     0x1fff080c     0x2  control.o [1]
    .bss               zero     0x1fff080e     0x2  control.o [1]
    .bss               zero     0x1fff0810     0x2  control.o [1]
    .bss               zero     0x1fff0812     0x2  control.o [1]
    .bss               zero     0x1fff0814     0x2  control.o [1]
    .bss               zero     0x1fff0816     0x2  control.o [1]
    .bss               zero     0x1fff0818     0x2  control.o [1]
    .bss               zero     0x1fff081a     0x2  control.o [1]
    .bss               zero     0x1fff081c     0x2  control.o [1]
    .bss               zero     0x1fff081e     0x2  control.o [1]
    .bss               zero     0x1fff0820     0x2  control.o [1]
    .bss               zero     0x1fff0822     0x2  control.o [1]
    .bss               zero     0x1fff0824     0x2  control.o [1]
    .bss               zero     0x1fff0826     0x2  control.o [1]
    .bss               zero     0x1fff0828     0x2  control.o [1]
    .bss               zero     0x1fff082a     0x2  control.o [1]
    .bss               zero     0x1fff082c     0x2  control.o [1]
    .bss               zero     0x1fff082e     0x2  control.o [1]
    .bss               zero     0x1fff0830     0x2  control.o [1]
    .bss               zero     0x1fff0832     0x2  control.o [1]
    .bss               zero     0x1fff0834     0x2  control.o [1]
    .bss               zero     0x1fff0836     0x2  control.o [1]
    .bss               zero     0x1fff0838     0x2  control.o [1]
    .bss               zero     0x1fff083a     0x2  control.o [1]
    .bss               zero     0x1fff083c     0x2  control.o [1]
    .bss               zero     0x1fff083e     0x2  control.o [1]
    .bss               zero     0x1fff0840     0x2  control.o [1]
    .bss               zero     0x1fff0842     0x2  control.o [1]
    .bss               zero     0x1fff0844     0x2  control.o [1]
    .bss               zero     0x1fff0846     0x2  control.o [1]
    .bss               zero     0x1fff0848     0x2  control.o [1]
    .bss               zero     0x1fff084a     0x2  control.o [1]
    .bss               zero     0x1fff084c     0x2  control.o [1]
    .bss               zero     0x1fff084e     0x2  control.o [1]
    .bss               zero     0x1fff0850     0x2  control.o [1]
    .bss               zero     0x1fff0852     0x2  control.o [1]
    .bss               zero     0x1fff0854     0x2  control.o [1]
    .bss               zero     0x1fff0856     0x2  control.o [1]
    .bss               zero     0x1fff0858     0x2  control.o [1]
    .bss               zero     0x1fff085a     0x2  control.o [1]
    .bss               zero     0x1fff085c     0x2  control.o [1]
    .bss               zero     0x1fff085e     0x2  control.o [1]
    .bss               zero     0x1fff0860     0x2  control.o [1]
    .bss               zero     0x1fff0862     0x2  control.o [1]
    .bss               zero     0x1fff0864     0x2  control.o [1]
    .bss               zero     0x1fff0866     0x2  control.o [1]
    .bss               zero     0x1fff0868     0x2  control.o [1]
    .bss               zero     0x1fff086a     0x2  control.o [1]
    .bss               zero     0x1fff086c     0x2  control.o [1]
    .bss               zero     0x1fff086e     0x2  control.o [1]
    .bss               zero     0x1fff0870     0x2  control.o [1]
    .bss               zero     0x1fff0872     0x2  control.o [1]
    .bss               zero     0x1fff0874     0x2  control.o [1]
    .bss               zero     0x1fff0876     0x2  control.o [1]
    .bss               zero     0x1fff0878     0x2  control.o [1]
    .bss               zero     0x1fff087a     0x2  control.o [1]
    .bss               zero     0x1fff087c     0x2  control.o [1]
    .bss               zero     0x1fff087e     0x2  control.o [1]
    .bss               zero     0x1fff0880     0x2  control.o [1]
    .bss               zero     0x1fff0882     0x2  control.o [1]
    .bss               zero     0x1fff0884     0x2  control.o [1]
    .bss               zero     0x1fff0886     0x2  control.o [1]
    .bss               zero     0x1fff0888     0x2  control.o [1]
    .bss               zero     0x1fff088a     0x2  control.o [1]
    .bss               zero     0x1fff088c     0x2  control.o [1]
    .bss               zero     0x1fff088e     0x2  control.o [1]
    .bss               zero     0x1fff0890     0x2  control.o [1]
    .bss               zero     0x1fff0892     0x2  control.o [1]
    .bss               zero     0x1fff0894     0x2  control.o [1]
    .bss               zero     0x1fff0896     0x2  control.o [1]
    .bss               zero     0x1fff0898     0x2  control.o [1]
    .bss               zero     0x1fff089a     0x2  control.o [1]
    .bss               zero     0x1fff089c     0x2  control.o [1]
    .bss               zero     0x1fff089e     0x2  control.o [1]
    .bss               zero     0x1fff08a0     0x2  control.o [1]
    .bss               zero     0x1fff08a2     0x2  control.o [1]
    .bss               zero     0x1fff08a4     0x2  control.o [1]
    .bss               zero     0x1fff08a6     0x2  control.o [1]
    .bss               zero     0x1fff08a8     0x2  control.o [1]
    .bss               zero     0x1fff08aa     0x2  control.o [1]
    .bss               zero     0x1fff08ac     0x2  control.o [1]
    .bss               zero     0x1fff08ae     0x2  control.o [1]
    .bss               zero     0x1fff08b0     0x2  control.o [1]
    .bss               zero     0x1fff08b2     0x2  control.o [1]
    .bss               zero     0x1fff08b4     0x2  control.o [1]
    .bss               zero     0x1fff08b6     0x2  control.o [1]
    .bss               zero     0x1fff08b8     0x2  control.o [1]
    .bss               zero     0x1fff08ba     0x2  control.o [1]
    .bss               zero     0x1fff08bc     0x2  control.o [1]
    .bss               zero     0x1fff08be     0x2  control.o [1]
    .bss               zero     0x1fff08c0     0x2  control.o [1]
    .bss               zero     0x1fff08c2     0x2  control.o [1]
    .bss               zero     0x1fff08c4     0x2  control.o [1]
    .bss               zero     0x1fff08c6     0x2  control.o [1]
    .bss               zero     0x1fff08c8     0x2  control.o [1]
    .bss               zero     0x1fff08ca     0x2  control.o [1]
    .bss               zero     0x1fff08cc     0x2  control.o [1]
    .bss               zero     0x1fff08ce     0x2  control.o [1]
    .bss               zero     0x1fff08d0     0x2  isr.o [1]
    .bss               zero     0x1fff08d2     0x2  isr.o [1]
    .bss               zero     0x1fff08d4     0x2  main.o [1]
    .bss               zero     0x1fff08d6     0x2  main.o [1]
    .bss               zero     0x1fff08d8     0x2  main.o [1]
    .bss               zero     0x1fff08da     0x2  main.o [1]
    .bss               zero     0x1fff08dc     0x2  main.o [1]
    .bss               zero     0x1fff08de     0x2  main.o [1]
    .bss               zero     0x1fff08e0     0x2  main.o [1]
    .bss               zero     0x1fff08e2     0x2  main.o [1]
    .bss               zero     0x1fff08e4     0x2  main.o [1]
    .bss               zero     0x1fff08e6     0x2  main.o [1]
    .bss               zero     0x1fff08e8     0x2  main.o [1]
    .bss               zero     0x1fff08ea     0x2  main.o [1]
    .bss               zero     0x1fff08ec     0x1  control.o [1]
    .bss               zero     0x1fff08ed     0x1  control.o [1]
    .bss               zero     0x1fff08ee     0x1  control.o [1]
    .bss               zero     0x1fff08ef     0x1  control.o [1]
    .bss               zero     0x1fff08f0     0x1  control.o [1]
    .bss               zero     0x1fff08f1     0x1  control.o [1]
    .bss               zero     0x1fff08f2     0x1  control.o [1]
    .bss               zero     0x1fff08f3     0x1  control.o [1]
    .bss               zero     0x1fff08f4     0x1  control.o [1]
    .bss               zero     0x1fff08f5     0x1  control.o [1]
    .bss               zero     0x1fff08f6     0x1  control.o [1]
    .bss               zero     0x1fff08f7     0x1  control.o [1]
    .bss               zero     0x1fff08f8     0x1  control.o [1]
    .bss               zero     0x1fff08f9     0x1  control.o [1]
    .bss               zero     0x1fff08fa     0x1  control.o [1]
    .bss               zero     0x1fff08fb     0x1  control.o [1]
    .bss               zero     0x1fff08fc     0x1  isr.o [1]
    .bss               zero     0x1fff08fd     0x1  isr.o [1]
    .bss               zero     0x1fff08fe     0x1  isr.o [1]
    .bss               zero     0x1fff08ff     0x1  isr.o [1]
    .bss               zero     0x1fff0900     0x1  isr.o [1]
    .bss               zero     0x1fff0901     0x1  isr.o [1]
    .bss               zero     0x1fff0902     0x1  isr.o [1]
    .bss               zero     0x1fff0903     0x1  isr.o [1]
    .bss               zero     0x1fff0904     0x1  isr.o [1]
    .bss               zero     0x1fff0905     0x1  isr.o [1]
                              - 0x1fff0906   0x436


*******************************************************************************
*** INIT TABLE
***

          Address     Size
          -------     ----
Zero (__iar_zero_init3)
    1 destination range, total size 0x436:
          0x1fff04d0  0x436



*******************************************************************************
*** MODULE SUMMARY
***

    Module            ro code  rw code  ro data  rw data
    ------            -------  -------  -------  -------
C:\Users\sony\Desktop\0717\bin\Flash\Obj: [1]
    LQ12864.o           1 556             1 520
    PID.o                 168                 4       40
    adc.o                 476                         16
    button.o              912
    common.o              180
    control.o          10 852                50      740
    crt0.o                 60
    delay.o                72
    gpio.o                162
    isr.o                 436                 2      276
    main.o             11 212               568       92
    pit.o                 184
    pwm.o               1 748                         12
    start.o               176
    sysinit.o             528       76       76       12
    uart.o                524
    vectors.o               2             1 040
    wdog.o                 56
    ----------------------------------------------------
    Total:             29 304       76    3 260    1 188

command line: [2]
    ----------------------------------------------------
    Total:

dl7M_tln.a: [3]
    exit.o                  4
    low_level_init.o        4
    ----------------------------------------------------
    Total:                  8

m7M_tl.a: [4]
    DblAdd.o              232
    DblCmpGe.o             46
    DblCmpLe.o             46
    DblDiv.o              582
    DblSub.o              364
    DblToFlt.o            144
    FltAdd.o              132
    FltDiv.o              252
    FltMul.o              216
    FltSub.o              230
    FltToDbl.o             78
    FltToS32.o             68
    I32ToFlt.o             46
    ----------------------------------------------------
    Total:              2 436

rt7M_tl.a: [5]
    ABImemclr4.o            6
    ABImemset48.o          50
    bwt_init3c.o
    cexit.o                10
    cmain.o                22
    cstartup_M.o           12
    data_init3.o           44
    zero_init3.o           34
    ----------------------------------------------------
    Total:                178

shb_l.a: [6]
    exit.o                 20
    ----------------------------------------------------
    Total:                 20

    Gaps                   16                 2        6
    Linker created          8                16
--------------------------------------------------------
    Grand Total:       31 970       76    3 278    1 194


*******************************************************************************
*** ENTRY LIST
***

Entry                      Address    Size  Type      Object
-----                      -------    ----  ----      ------
.bss$$Base              0x1fff04d0           --   Gb  - Linker created -
.bss$$Limit             0x1fff0906           --   Gb  - Linker created -
.data$$Base             0x1fff0410           --   Gb  - Linker created -
.data$$Limit            0x1fff0484           --   Gb  - Linker created -
.data_init$$Base        0x0000866c           --   Gb  - Linker created -
.data_init$$Limit       0x000086e0           --   Gb  - Linker created -
?main                   0x00008769          Code  Gb  cmain.o [5]
Abs                     0x00004273     0xa  Code  Gb  control.o [1]
Aver_F                  0x1fff07e2     0x2  Data  Gb  control.o [1]
Aver_Z                  0x1fff083c     0x2  Data  Gb  control.o [1]
BK                      0x1fff047e     0x1  Data  Gb  main.o [1]
CAR_GO                  0x1fff0905     0x1  Data  Gb  isr.o [1]
CCD_init                0x00003db1    0x42  Code  Gb  control.o [1]
CalculateIntegrationTimeFront
                        0x000040ff    0xa6  Code  Gb  control.o [1]
CalculateIntegrationTimeZong
                        0x000041a5    0xa6  Code  Gb  control.o [1]
CodeRelocate$$Base      0x000086e0           --   Gb  - Linker created -
CodeRelocate$$Limit     0x0000872c           --   Gb  - Linker created -
CodeRelocateRam$$Base   0x1fff0484           --   Gb  - Linker created -
CodeRelocateRam$$Limit  0x1fff04d0           --   Gb  - Linker created -
D_err                   0x1fff0876     0x2  Data  Gb  control.o [1]
DirectionControlOutput  0x00006191    0x46  Code  Gb  control.o [1]
F8X16                   0x00007bc8   0x5f0  Data  Gb  LQ12864.o [1]
FRONT_WIDTH             0x1fff08e8     0x2  Data  Gb  main.o [1]
FTM2_QUAD_Iint          0x00006fe7    0x62  Code  Gb  pwm.o [1]
FTM_MOD0                0x1fff07c0     0x4  Data  Gb  pwm.o [1]
FTM_MOD1                0x1fff07c4     0x4  Data  Gb  pwm.o [1]
FTM_MOD2                0x1fff07c8     0x4  Data  Gb  pwm.o [1]
FTM_PWM_ChangeDuty      0x00006e69    0xb6  Code  Gb  pwm.o [1]
FTM_PWM_Init            0x00006a21   0x2ea  Code  Gb  pwm.o [1]
FTM_PWM_Open            0x00006d0b   0x15e  Code  Gb  pwm.o [1]
GetMotorPulse           0x000061d7    0x2a  Code  Gb  control.o [1]
IT_long                 0x1fff08da     0x2  Data  Gb  main.o [1]
IT_ref                  0x1fff0448     0x1  Data  Gb  main.o [1]
ImageCapture_F          0x00003f4b    0xda  Code  Gb  control.o [1]
ImageCapture_Z          0x00004025    0xda  Code  Gb  control.o [1]
IncPID_Calculate        0x00003035    0x7e  Code  Gb  PID.o [1]
IntegrationTime_Front   0x1fff0422     0x1  Data  Gb  control.o [1]
IntegrationTime_Zong    0x1fff0423     0x1  Data  Gb  control.o [1]
Kd                      0x1fff0454     0x4  Data  Gb  main.o [1]
Kd_BL                   0x1fff0464     0x4  Data  Gb  main.o [1]
Kd_ZZ                   0x1fff0460     0x4  Data  Gb  main.o [1]
Kd_hold                 0x1fff045c     0x4  Data  Gb  main.o [1]
Kp                      0x1fff0450     0x4  Data  Gb  main.o [1]
Kp_hold                 0x1fff0458     0x4  Data  Gb  main.o [1]
LCD_CLS                 0x00003223    0x38  Code  Gb  LQ12864.o [1]
LCD_DLY_ms              0x0000325b    0x1a  Code  Gb  LQ12864.o [1]
LCD_Fill                0x000031e7    0x3c  Code  Gb  LQ12864.o [1]
LCD_Init                0x00003275   0x13a  Code  Gb  LQ12864.o [1]
LCD_P8x16Str            0x0000354f    0xa8  Code  Gb  LQ12864.o [1]
LCD_P8x16_num3wei       0x000035f7    0xc2  Code  Gb  LQ12864.o [1]
LCD_P8x16_number        0x000033af    0xc4  Code  Gb  LQ12864.o [1]
LCD_P8x16_number_4      0x00003473    0xdc  Code  Gb  LQ12864.o [1]
LCD_Set_Pos             0x000031bb    0x2c  Code  Gb  LQ12864.o [1]
LCD_WrCmd               0x00003141    0x7a  Code  Gb  LQ12864.o [1]
LCD_WrDat               0x000030c1    0x7e  Code  Gb  LQ12864.o [1]
LHOLDdiao_flag          0x1fff08f3     0x1  Data  Gb  control.o [1]
LR_count                0x1fff08b8     0x2  Data  Gb  control.o [1]
L_aver                  0x1fff08a8     0x2  Data  Gb  control.o [1]
L_fch                   0x1fff08aa     0x2  Data  Gb  control.o [1]
Ldiaotou_count          0x1fff088a     0x2  Data  Gb  control.o [1]
Ldiaotou_flag           0x1fff08f2     0x1  Data  Gb  control.o [1]
Lendiao                 0x1fff08f5     0x1  Data  Gb  control.o [1]
Lfch                    0x1fff0802     0x2  Data  Gb  control.o [1]
Lpre1                   0x1fff089e     0x2  Data  Gb  control.o [1]
Lpre2                   0x1fff08a0     0x2  Data  Gb  control.o [1]
Lpre3                   0x1fff08a2     0x2  Data  Gb  control.o [1]
Lpre4                   0x1fff08a4     0x2  Data  Gb  control.o [1]
Lr_count                0x1fff08ba     0x2  Data  Gb  control.o [1]
Master_Adc_Config       0x1fff04fc    0x10  Data  Gb  adc.o [1]
Motor_Lock              0x1fff08e2     0x2  Data  Gb  main.o [1]
Motor_init              0x00006f1f    0xc8  Code  Gb  pwm.o [1]
PID_SetKpid             0x00003021    0x14  Code  Gb  PID.o [1]
PID_SetPoint            0x00003019     0x8  Code  Gb  PID.o [1]
PULSE_MAX               0x1fff0478     0x2  Data  Gb  main.o [1]
PixelAverage            0x0000424b    0x28  Code  Gb  control.o [1]
PixelAverageValue_Front
                        0x1fff08ec     0x1  Data  Gb  control.o [1]
PixelAverageValue_Zong  0x1fff08ee     0x1  Data  Gb  control.o [1]
PixelAverageVoltageError
                        0x1fff087a     0x2  Data  Gb  control.o [1]
PixelAverageVoltage_Front
                        0x1fff08ed     0x1  Data  Gb  control.o [1]
PixelAverageVoltage_Zong
                        0x1fff08ef     0x1  Data  Gb  control.o [1]
Pixel_F                 0x1fff06b0    0x80  Data  Gb  isr.o [1]
Pixel_Z                 0x1fff0730    0x80  Data  Gb  isr.o [1]
QPX                     0x1fff08d2     0x2  Data  Gb  isr.o [1]
QPX_SET                 0x1fff0446     0x2  Data  Gb  isr.o [1]
RHOLDdiao_flag          0x1fff08f4     0x1  Data  Gb  control.o [1]
RSH                     0x1fff0444     0x2  Data  Gb  control.o [1]
R_aver                  0x1fff08a6     0x2  Data  Gb  control.o [1]
R_fch                   0x1fff08ac     0x2  Data  Gb  control.o [1]
Rdiaotou_count          0x1fff0888     0x2  Data  Gb  control.o [1]
Rdiaotou_flag           0x1fff08f1     0x1  Data  Gb  control.o [1]
Region$$Table$$Base     0x00008758           --   Gb  - Linker created -
Region$$Table$$Limit    0x00008768           --   Gb  - Linker created -
Rendiao                 0x1fff08f6     0x1  Data  Gb  control.o [1]
Rfch                    0x1fff0804     0x2  Data  Gb  control.o [1]
Rpre1                   0x1fff0896     0x2  Data  Gb  control.o [1]
Rpre2                   0x1fff0898     0x2  Data  Gb  control.o [1]
Rpre3                   0x1fff089a     0x2  Data  Gb  control.o [1]
Rpre4                   0x1fff089c     0x2  Data  Gb  control.o [1]
SHACHE_TIME_3           0x1fff0436     0x1  Data  Gb  control.o [1]
SHACHE_TIME_4           0x1fff0437     0x1  Data  Gb  control.o [1]
SHACHE_TIME_5           0x1fff0438     0x1  Data  Gb  control.o [1]
SHA_PULSE               0x1fff0434     0x2  Data  Gb  control.o [1]
SamplingDelay           0x00005ee5    0x24  Code  Gb  control.o [1]
Sd                      0x1fff07bc     0x4  Data  Gb  main.o [1]
Servo_Lock              0x1fff08e4     0x2  Data  Gb  main.o [1]
SetServoVoltage         0x00005f09   0x280  Code  Gb  control.o [1]
Si                      0x1fff07b8     0x4  Data  Gb  main.o [1]
Sp                      0x1fff0480     0x4  Data  Gb  main.o [1]
Speed_PID               0x00006225   0x19a  Code  Gb  control.o [1]
StartIntegrationFront   0x00003df3    0xac  Code  Gb  control.o [1]
StartIntegrationZong    0x00003e9f    0xac  Code  Gb  control.o [1]
TIME1flag_20ms          0x1fff0900     0x1  Data  Gb  isr.o [1]
TIME1flag_20ms_Z        0x1fff0901     0x1  Data  Gb  isr.o [1]
TargetPixelAverageVoltage
                        0x1fff041e     0x2  Data  Gb  control.o [1]
TargetPixelAverageVoltageAllowError
                        0x1fff0420     0x2  Data  Gb  control.o [1]
TimerCnt20ms            0x1fff08fe     0x1  Data  Gb  isr.o [1]
TimerCnt20ms_Z          0x1fff08ff     0x1  Data  Gb  isr.o [1]
WW_flag                 0x1fff08fb     0x1  Data  Gb  control.o [1]
ZHONG                   0x1fff0430     0x2  Data  Gb  control.o [1]
ZONG_WIDTH              0x1fff08ea     0x2  Data  Gb  main.o [1]
ZZ_count                0x1fff088c     0x2  Data  Gb  control.o [1]
__BOOT_STACK_ADDRESS {Abs}
                        0x2000fff8           --   Gb  command line/config [2]
__PID                   0x1fff04d8    0x1c  Data  Gb  PID.o [1]
__VECTOR_RAM {Abs}      0x1fff0000           --   Gb  command line/config [2]
__VECTOR_TABLE {Abs}    0x00000000           --   Gb  command line/config [2]
__aeabi_cdcmple         0x000079b5          Code  Gb  DblCmpLe.o [4]
__aeabi_cdrcmple        0x00007985          Code  Gb  DblCmpGe.o [4]
__aeabi_d2f             0x00003d21          Code  Gb  DblToFlt.o [4]
__aeabi_dadd            0x00003c39          Code  Gb  DblAdd.o [4]
__aeabi_ddiv            0x0000773d          Code  Gb  DblDiv.o [4]
__aeabi_f2d             0x00003bc9          Code  Gb  FltToDbl.o [4]
__aeabi_f2iz            0x00003b85          Code  Gb  FltToS32.o [4]
__aeabi_fadd            0x000072c5          Code  Gb  FltAdd.o [4]
__aeabi_fdiv            0x000079e5          Code  Gb  FltDiv.o [4]
__aeabi_fmul            0x00003aad          Code  Gb  FltMul.o [4]
__aeabi_fsub            0x000071dd          Code  Gb  FltSub.o [4]
__aeabi_i2f             0x000071ad          Code  Gb  I32ToFlt.o [4]
__aeabi_memclr4         0x00007735          Code  Gb  ABImemclr4.o [5]
__cmain                 0x00008769          Code  Gb  cmain.o [5]
__exit                  0x00008795    0x14  Code  Gb  exit.o [6]
__iar_Memset4_word      0x00007b95          Code  Gb  ABImemset48.o [5]
__iar_Memset8_word      0x00007b95          Code  Gb  ABImemset48.o [5]
__iar_SB                0x000089b0          Data  Gb  bwt_init3c.o [5]
__iar_dadd              0x00003c4d          Code  Gb  DblAdd.o [4]
__iar_data_init3        0x0000872d    0x2c  Code  Gb  data_init3.o [5]
__iar_dsub              0x000073ed          Code  Gb  DblSub.o [4]
__iar_dsubStart         0x000073ff          Code  Gb  DblSub.o [4]
__iar_fadd              0x000072d5          Code  Gb  FltAdd.o [4]
__iar_fsub              0x000071ed          Code  Gb  FltSub.o [4]
__iar_fsubStart         0x000071fd          Code  Gb  FltSub.o [4]
__iar_program_start     0x00008815          Code  Gb  cstartup_M.o [5]
__iar_ui2f              0x000071c1          Code  Gb  I32ToFlt.o [4]
__iar_zero_init3        0x00003c17    0x22  Code  Gb  zero_init3.o [5]
__low_level_init        0x0000877f     0x4  Code  Gb  low_level_init.o [3]
__startup               0x00000411          Code  Gb  crt0.o [1]
__vector_table          0x00000000   0x410  Data  Gb  vectors.o [1]
_call_main              0x00008775          Code  Gb  cmain.o [5]
_exit                   0x00008789          Code  Gb  cexit.o [5]
_main                   0x0000877b          Code  Gb  cmain.o [5]
binaryzation_F          0x0000427d   0x34c  Code  Gb  control.o [1]
binaryzation_Z          0x000045c9   0x1f0  Code  Gb  control.o [1]
black_l                 0x1fff08c4     0x2  Data  Gb  control.o [1]
black_r                 0x1fff08c6     0x2  Data  Gb  control.o [1]
bodong                  0x1fff087c     0x2  Data  Gb  control.o [1]
chafang_f               0x1fff05dc    0xc8  Data  Gb  control.o [1]
chu                     0x1fff042c     0x4  Data  Gb  control.o [1]
cl_f                    0x1fff07fe     0x2  Data  Gb  control.o [1]
cl_f_long               0x1fff08d4     0x2  Data  Gb  main.o [1]
cl_f_pre                0x1fff0800     0x2  Data  Gb  control.o [1]
cl_z                    0x1fff0848     0x2  Data  Gb  control.o [1]
cl_z_long               0x1fff08dc     0x2  Data  Gb  main.o [1]
common_startup          0x00008599    0x74  Code  Gb  start.o [1]
core_clk_khz            0x1fff07cc     0x4  Data  Gb  sysinit.o [1]
core_clk_mhz            0x1fff07d0     0x4  Data  Gb  sysinit.o [1]
d_err1                  0x1fff0824     0x2  Data  Gb  control.o [1]
d_err2                  0x1fff0826     0x2  Data  Gb  control.o [1]
d_err3                  0x1fff0828     0x2  Data  Gb  control.o [1]
d_err4                  0x1fff082a     0x2  Data  Gb  control.o [1]
d_err5                  0x1fff082c     0x2  Data  Gb  control.o [1]
d_err6                  0x1fff082e     0x2  Data  Gb  control.o [1]
d_err7                  0x1fff0830     0x2  Data  Gb  control.o [1]
d_err8                  0x1fff0832     0x2  Data  Gb  control.o [1]
d_err9                  0x1fff0834     0x2  Data  Gb  control.o [1]
default_isr             0x000071db     0x2  Code  Gb  vectors.o [1]
delay_count             0x1fff08ca     0x2  Data  Gb  control.o [1]
delay_ms                0x00003a65    0x38  Code  Gb  delay.o [1]
delta_l                 0x1fff07e4     0x2  Data  Gb  control.o [1]
delta_p                 0x1fff04d0     0x8  Data  Gb  control.o [1]
delta_r                 0x1fff07e6     0x2  Data  Gb  control.o [1]
enable_irq              0x00007ae7    0x90  Code  Gb  common.o [1]
enable_pit_interrupt    0x00007153    0x4c  Code  Gb  pit.o [1]
exit                    0x00008783     0x4  Code  Gb  exit.o [3]
fangcha_f               0x1fff0890     0x2  Data  Gb  control.o [1]
fangcha_hou_f           0x1fff0894     0x2  Data  Gb  control.o [1]
fangcha_qian_f          0x1fff0892     0x2  Data  Gb  control.o [1]
fb_clk_init             0x0000821f    0x16  Code  Gb  sysinit.o [1]
fch_dp1                 0x1fff044a     0x2  Data  Gb  main.o [1]
fch_dp2                 0x1fff044c     0x2  Data  Gb  main.o [1]
front_OFFSET            0x1fff080e     0x2  Data  Gb  control.o [1]
front_OFFSET_KZ         0x1fff0808     0x2  Data  Gb  control.o [1]
front_OFFSET_KZ_pre     0x1fff080c     0x2  Data  Gb  control.o [1]
front_OFFSET_pre1       0x1fff0810     0x2  Data  Gb  control.o [1]
front_OFFSET_pre10      0x1fff0822     0x2  Data  Gb  control.o [1]
front_OFFSET_pre2       0x1fff0812     0x2  Data  Gb  control.o [1]
front_OFFSET_pre3       0x1fff0814     0x2  Data  Gb  control.o [1]
front_OFFSET_pre4       0x1fff0816     0x2  Data  Gb  control.o [1]
front_OFFSET_pre5       0x1fff0818     0x2  Data  Gb  control.o [1]
front_OFFSET_pre6       0x1fff081a     0x2  Data  Gb  control.o [1]
front_OFFSET_pre7       0x1fff081c     0x2  Data  Gb  control.o [1]
front_OFFSET_pre8       0x1fff081e     0x2  Data  Gb  control.o [1]
front_OFFSET_pre9       0x1fff0820     0x2  Data  Gb  control.o [1]
front_l                 0x1fff07dc     0x2  Data  Gb  control.o [1]
front_l_fg_last         0x1fff08b0     0x2  Data  Gb  control.o [1]
front_l_flag            0x1fff08b4     0x2  Data  Gb  control.o [1]
front_l_last            0x1fff07e8     0x2  Data  Gb  control.o [1]
front_l_long            0x1fff08d6     0x2  Data  Gb  main.o [1]
front_l_pre1            0x1fff07ec     0x2  Data  Gb  control.o [1]
front_l_pre2            0x1fff07f0     0x2  Data  Gb  control.o [1]
front_l_pre3            0x1fff07f4     0x2  Data  Gb  control.o [1]
front_l_pre4            0x1fff07f8     0x2  Data  Gb  control.o [1]
front_l_reference       0x1fff0806     0x2  Data  Gb  control.o [1]
front_max               0x1fff07de     0x2  Data  Gb  control.o [1]
front_min               0x1fff07e0     0x2  Data  Gb  control.o [1]
front_r                 0x1fff0414     0x2  Data  Gb  control.o [1]
front_r_fg_last         0x1fff08b2     0x2  Data  Gb  control.o [1]
front_r_flag            0x1fff08b6     0x2  Data  Gb  control.o [1]
front_r_last            0x1fff07ea     0x2  Data  Gb  control.o [1]
front_r_long            0x1fff08d8     0x2  Data  Gb  main.o [1]
front_r_pre1            0x1fff07ee     0x2  Data  Gb  control.o [1]
front_r_pre2            0x1fff07f2     0x2  Data  Gb  control.o [1]
front_r_pre3            0x1fff07f6     0x2  Data  Gb  control.o [1]
front_r_pre4            0x1fff07fa     0x2  Data  Gb  control.o [1]
front_r_reference       0x1fff0416     0x2  Data  Gb  control.o [1]
front_reference         0x1fff080a     0x2  Data  Gb  control.o [1]
front_width             0x1fff07fc     0x2  Data  Gb  control.o [1]
g_fDirectionControlOutNew
                        0x1fff0510     0x4  Data  Gb  control.o [1]
g_fDirectionControlOutOld
                        0x1fff050c     0x4  Data  Gb  control.o [1]
g_n1msEventCount        0x1fff0902     0x1  Data  Gb  isr.o [1]
g_nDirectionControlPeriod
                        0x1fff07da     0x2  Data  Gb  control.o [1]
g_nMotorPulse           0x1fff07d8     0x2  Data  Gb  control.o [1]
g_nMotorPulseSigma      0x1fff0878     0x2  Data  Gb  control.o [1]
g_nSpeedControlCount    0x1fff0903     0x1  Data  Gb  isr.o [1]
get_front               0x00004821   0xdb8  Code  Gb  control.o [1]
get_fu                  0x00005825   0x1b0  Code  Gb  control.o [1]
get_zong                0x00005a25   0x442  Code  Gb  control.o [1]
gpio_init               0x00007349    0x7a  Code  Gb  gpio.o [1]
gpio_read               0x000073dd     0xe  Code  Gb  gpio.o [1]
high_aver_f             0x1fff087e     0x2  Data  Gb  control.o [1]
high_aver_z             0x1fff0882     0x2  Data  Gb  control.o [1]
hw_ad_once              0x000075a7    0x4a  Code  Gb  adc.o [1]
hw_adc_config_alt       0x000076ed    0x26  Code  Gb  adc.o [1]
hw_adc_convertstart     0x000075f1    0xfc  Code  Gb  adc.o [1]
hw_adc_init             0x00007559    0x4e  Code  Gb  adc.o [1]
hw_pit_init             0x000070f5    0x5e  Code  Gb  pit.o [1]
integration_piont_Front
                        0x1fff08fc     0x1  Data  Gb  isr.o [1]
integration_piont_Zong  0x1fff08fd     0x1  Data  Gb  isr.o [1]
jiao_L                  0x1fff0424     0x2  Data  Gb  control.o [1]
jiao_R                  0x1fff0426     0x2  Data  Gb  control.o [1]
jisha                   0x1fff0439     0x1  Data  Gb  control.o [1]
k                       0x1fff0428     0x4  Data  Gb  control.o [1]
k_B                     0x1fff0468     0x4  Data  Gb  main.o [1]
key_no                  0x1fff047c     0x1  Data  Gb  main.o [1]
key_num                 0x1fff047b     0x1  Data  Gb  main.o [1]
keyboard_scan           0x00003755   0x306  Code  Gb  button.o [1]
lR_count                0x1fff08bc     0x2  Data  Gb  control.o [1]
lost_all_flag           0x1fff08f0     0x1  Data  Gb  control.o [1]
low_aver_f              0x1fff0880     0x2  Data  Gb  control.o [1]
low_aver_z              0x1fff0884     0x2  Data  Gb  control.o [1]
lr_count                0x1fff08be     0x2  Data  Gb  control.o [1]
main                    0x0000044d  0x2a22  Code  Gb  main.o [1]
matrix_keyboard_init    0x000036d5    0x80  Code  Gb  button.o [1]
mq                      0x1fff08f9     0x1  Data  Gb  control.o [1]
mq_last                 0x1fff08fa     0x1  Data  Gb  control.o [1]
periph_clk_khz          0x1fff07d4     0x4  Data  Gb  sysinit.o [1]
pit0_isr                0x000083d1   0x1b4  Code  Gb  isr.o [1]
pll_init                0x00008235   0x15a  Code  Gb  sysinit.o [1]
pulse_count             0x1fff06a8     0x4  Data  Gb  control.o [1]
pulse_count_max         0x1fff07b4     0x4  Data  Gb  main.o [1]
pulse_count_pre         0x1fff06ac     0x4  Data  Gb  control.o [1]
qpx_count               0x1fff08ae     0x2  Data  Gb  control.o [1]
qpx_delay               0x1fff07b0     0x4  Data  Gb  isr.o [1]
qpx_en                  0x1fff0904     0x1  Data  Gb  isr.o [1]
rensha_count            0x1fff0886     0x2  Data  Gb  control.o [1]
route_ave_f             0x1fff088e     0x2  Data  Gb  control.o [1]
route_f                 0x1fff0514    0xc8  Data  Gb  control.o [1]
route_type_F            0x00005639   0x1c0  Code  Gb  control.o [1]
rzguo_flag              0x1fff08f7     0x1  Data  Gb  control.o [1]
rzop                    0x1fff08f8     0x1  Data  Gb  control.o [1]
sPID                    0x1fff0410     0x4  Data  Gb  PID.o [1]
sd                      0x1fff0440     0x4  Data  Gb  control.o [1]
servo_duty              0x1fff041c     0x2  Data  Gb  control.o [1]
set_sys_dividers        0x1fff0485    0x4c  Code  Gb  sysinit.o [1]
shache3                 0x00006421   0x2fe  Code  Gb  control.o [1]
shache_time             0x1fff08e6     0x2  Data  Gb  main.o [1]
sina                    0x1fff047a     0x1  Data  Gb  main.o [1]
sp                      0x1fff043c     0x4  Data  Gb  control.o [1]
speed                   0x1fff046c     0x2  Data  Gb  main.o [1]
speed_B                 0x1fff0474     0x2  Data  Gb  main.o [1]
speed_H                 0x1fff046e     0x2  Data  Gb  main.o [1]
speed_L                 0x1fff0472     0x2  Data  Gb  main.o [1]
speed_W                 0x1fff0470     0x2  Data  Gb  main.o [1]
speed_jian              0x1fff0476     0x2  Data  Gb  main.o [1]
speed_pwm               0x1fff08ce     0x2  Data  Gb  control.o [1]
speedflag               0x1fff08d0     0x2  Data  Gb  isr.o [1]
start                   0x00008585    0x14  Code  Gb  start.o [1]
stop_count              0x1fff08c2     0x2  Data  Gb  control.o [1]
stop_flag               0x1fff08c0     0x2  Data  Gb  control.o [1]
sysinit                 0x000081c1    0x48  Code  Gb  sysinit.o [1]
system_init             0x00002e91    0x6a  Code  Gb  main.o [1]
t                       0x1fff06a4     0x4  Data  Gb  control.o [1]
trace_clk_init          0x00008209    0x16  Code  Gb  sysinit.o [1]
uart_init               0x00006815   0x1ba  Code  Gb  uart.o [1]
wdog_disable            0x00008635    0x16  Code  Gb  wdog.o [1]
wdog_unlock             0x0000864d    0x16  Code  Gb  wdog.o [1]
write_vtor              0x00007ae1     0x6  Code  Gb  common.o [1]
xianfu                  0x1fff0432     0x2  Data  Gb  control.o [1]
z_err1                  0x1fff0864     0x2  Data  Gb  control.o [1]
z_err2                  0x1fff0866     0x2  Data  Gb  control.o [1]
z_err3                  0x1fff0868     0x2  Data  Gb  control.o [1]
z_err4                  0x1fff086a     0x2  Data  Gb  control.o [1]
z_err5                  0x1fff086c     0x2  Data  Gb  control.o [1]
z_err6                  0x1fff086e     0x2  Data  Gb  control.o [1]
z_err7                  0x1fff0870     0x2  Data  Gb  control.o [1]
z_err8                  0x1fff0872     0x2  Data  Gb  control.o [1]
z_err9                  0x1fff0874     0x2  Data  Gb  control.o [1]
zheng                   0x1fff08c8     0x2  Data  Gb  control.o [1]
zhming                  0x1fff047d     0x1  Data  Gb  main.o [1]
zhong                   0x1fff08cc     0x2  Data  Gb  control.o [1]
zong_OFFSET             0x1fff084e     0x2  Data  Gb  control.o [1]
zong_OFFSET_pre1        0x1fff0850     0x2  Data  Gb  control.o [1]
zong_OFFSET_pre10       0x1fff0862     0x2  Data  Gb  control.o [1]
zong_OFFSET_pre2        0x1fff0852     0x2  Data  Gb  control.o [1]
zong_OFFSET_pre3        0x1fff0854     0x2  Data  Gb  control.o [1]
zong_OFFSET_pre4        0x1fff0856     0x2  Data  Gb  control.o [1]
zong_OFFSET_pre5        0x1fff0858     0x2  Data  Gb  control.o [1]
zong_OFFSET_pre6        0x1fff085a     0x2  Data  Gb  control.o [1]
zong_OFFSET_pre7        0x1fff085c     0x2  Data  Gb  control.o [1]
zong_OFFSET_pre8        0x1fff085e     0x2  Data  Gb  control.o [1]
zong_OFFSET_pre9        0x1fff0860     0x2  Data  Gb  control.o [1]
zong_l                  0x1fff0836     0x2  Data  Gb  control.o [1]
zong_l_last             0x1fff083e     0x2  Data  Gb  control.o [1]
zong_l_long             0x1fff08de     0x2  Data  Gb  main.o [1]
zong_l_pre              0x1fff0842     0x2  Data  Gb  control.o [1]
zong_l_reference        0x1fff084a     0x2  Data  Gb  control.o [1]
zong_max                0x1fff0838     0x2  Data  Gb  control.o [1]
zong_min                0x1fff083a     0x2  Data  Gb  control.o [1]
zong_r                  0x1fff0418     0x2  Data  Gb  control.o [1]
zong_r_last             0x1fff0840     0x2  Data  Gb  control.o [1]
zong_r_long             0x1fff08e0     0x2  Data  Gb  main.o [1]
zong_r_pre              0x1fff0844     0x2  Data  Gb  control.o [1]
zong_r_reference        0x1fff041a     0x2  Data  Gb  control.o [1]
zong_reference          0x1fff084c     0x2  Data  Gb  control.o [1]
zong_width              0x1fff0846     0x2  Data  Gb  control.o [1]


[1] = C:\Users\sony\Desktop\0717\bin\Flash\Obj
[2] = command line
[3] = dl7M_tln.a
[4] = m7M_tl.a
[5] = rt7M_tl.a
[6] = shb_l.a

  31 970 bytes of readonly  code memory
      76 bytes of readwrite code memory
   3 278 bytes of readonly  data memory
   1 194 bytes of readwrite data memory

Errors: none
Warnings: none
