///////////////////////////////////////////////////////////////////////////////
//                                                                            /
//                                                      30/Jul/2014  21:11:01 /
// IAR ANSI C/C++ Compiler V6.30.4.23288/W32 EVALUATION for ARM               /
// Copyright 1999-2011 IAR Systems AB.                                        /
//                                                                            /
//    Cpu mode     =  thumb                                                   /
//    Endian       =  little                                                  /
//    Source file  =  D:\FREESCALE智能车竞赛\freescale(九)\程序\PE V2.0       /
//                    2014.07.18 saihouzhenli\src\Sources\C\Component_C\gpio. /
//                    c                                                       /
//    Command line =  "D:\FREESCALE智能车竞赛\freescale(九)\程序\PE V2.0      /
//                    2014.07.18 saihouzhenli\src\Sources\C\Component_C\gpio. /
//                    c" -D IAR -D TWR_K60N512 -lCN                           /
//                    "D:\FREESCALE智能车竞赛\freescale(九)\程序\PE V2.0      /
//                    2014.07.18 saihouzhenli\bin\Flash\List\" -lB            /
//                    "D:\FREESCALE智能车竞赛\freescale(九)\程序\PE V2.0      /
//                    2014.07.18 saihouzhenli\bin\Flash\List\" -o             /
//                    "D:\FREESCALE智能车竞赛\freescale(九)\程序\PE V2.0      /
//                    2014.07.18 saihouzhenli\bin\Flash\Obj\" --no_cse        /
//                    --no_unroll --no_inline --no_code_motion --no_tbaa      /
//                    --no_clustering --no_scheduling --debug                 /
//                    --endian=little --cpu=Cortex-M4 -e --fpu=None           /
//                    --dlib_config "E:\Program Files                         /
//                    (x86)\IAREW6.3\arm\INC\c\DLib_Config_Normal.h" -I       /
//                    "D:\FREESCALE智能车竞赛\freescale(九)\程序\PE V2.0      /
//                    2014.07.18 saihouzhenli\src\Sources\H\" -I              /
//                    "D:\FREESCALE智能车竞赛\freescale(九)\程序\PE V2.0      /
//                    2014.07.18 saihouzhenli\src\Sources\H\Component_H\" -I  /
//                    "D:\FREESCALE智能车竞赛\freescale(九)\程序\PE V2.0      /
//                    2014.07.18 saihouzhenli\src\Sources\H\Frame_H\" -Ol     /
//                    --use_c++_inline                                        /
//    List file    =  D:\FREESCALE智能车竞赛\freescale(九)\程序\PE V2.0       /
//                    2014.07.18 saihouzhenli\bin\Flash\List\gpio.s           /
//                                                                            /
//                                                                            /
///////////////////////////////////////////////////////////////////////////////

        NAME gpio

        #define SHT_PROGBITS 0x1

        PUBLIC gpio_ctrl
        PUBLIC gpio_init
        PUBLIC gpio_read
        PUBLIC gpio_reverse

// D:\FREESCALE智能车竞赛\freescale(九)\程序\PE V2.0 2014.07.18 saihouzhenli\src\Sources\C\Component_C\gpio.c
//    1 //-------------------------------------------------------------------------*
//    2 // 文件名: gpio.c                                                          *
//    3 // 说  明: gpio驱动程序文件                                                *
//    4 //-------------------------------------------------------------------------*
//    5 
//    6 #include "gpio.h"     //包含gpio头文件
//    7 
//    8 //-------------------------------------------------------------------------*
//    9 //函数名: gpio_init                                                        *
//   10 //功  能: 初始化gpio                                                       * 
//   11 //参  数: port:端口名                                                      *
//   12 //        index:指定端口引脚                                               *
//   13 //        dir:引脚方向,0=输入,1=输出                                       * 
//   14 //        data:初始状态,0=低电平,1=高电平                                  *
//   15 //返  回: 无                                                               *
//   16 //说  明: 无                                                               *
//   17 //-------------------------------------------------------------------------*

        SECTION `.text`:CODE:NOROOT(1)
        THUMB
//   18 void gpio_init (GPIO_MemMapPtr port, int index, int dir,int data)
//   19 {
gpio_init:
        PUSH     {R4-R6}
//   20      PORT_MemMapPtr p;
//   21      switch((uint32)port)
        MOVS     R5,R0
        LDR.N    R6,??DataTable0  ;; 0x400ff000
        SUBS     R5,R5,R6
        BEQ.N    ??gpio_init_0
        SUBS     R5,R5,#+64
        BEQ.N    ??gpio_init_1
        SUBS     R5,R5,#+64
        BEQ.N    ??gpio_init_2
        SUBS     R5,R5,#+64
        BEQ.N    ??gpio_init_3
        SUBS     R5,R5,#+64
        BEQ.N    ??gpio_init_4
        B.N      ??gpio_init_5
//   22      {
//   23      case 0x400FF000u:
//   24          p = PORTA_BASE_PTR;
??gpio_init_0:
        LDR.N    R4,??DataTable0_1  ;; 0x40049000
//   25          break;
        B.N      ??gpio_init_6
//   26      case 0x400FF040u:
//   27          p = PORTB_BASE_PTR;
??gpio_init_1:
        LDR.N    R4,??DataTable0_2  ;; 0x4004a000
//   28          break;
        B.N      ??gpio_init_6
//   29      case 0x400FF080u:
//   30          p = PORTC_BASE_PTR;
??gpio_init_2:
        LDR.N    R4,??DataTable0_3  ;; 0x4004b000
//   31          break;
        B.N      ??gpio_init_6
//   32      case 0x400FF0C0u:
//   33          p = PORTD_BASE_PTR;
??gpio_init_3:
        LDR.N    R4,??DataTable0_4  ;; 0x4004c000
//   34          break;
        B.N      ??gpio_init_6
//   35      case 0x400FF100u:
//   36          p = PORTE_BASE_PTR;
??gpio_init_4:
        LDR.N    R4,??DataTable0_5  ;; 0x4004d000
//   37          break;
        B.N      ??gpio_init_6
//   38      default:
//   39          break;
//   40      }
//   41      PORT_PCR_REG(p,index)=(0|PORT_PCR_MUX(1));
??gpio_init_5:
??gpio_init_6:
        MOV      R5,#+256
        STR      R5,[R4, R1, LSL #+2]
//   42 
//   43      if(dir == 1)//output
        CMP      R2,#+1
        BNE.N    ??gpio_init_7
//   44      {
//   45     	 GPIO_PDDR_REG(port) |= (1<<index);
        LDR      R2,[R0, #+20]
        MOVS     R4,#+1
        LSLS     R4,R4,R1
        ORRS     R2,R4,R2
        STR      R2,[R0, #+20]
//   46     	 if(data == 1)//output
        CMP      R3,#+1
        BNE.N    ??gpio_init_8
//   47 			  GPIO_PDOR_REG(port) |= (1<<index);
        LDR      R2,[R0, #+0]
        MOVS     R3,#+1
        LSLS     R1,R3,R1
        ORRS     R1,R1,R2
        STR      R1,[R0, #+0]
        B.N      ??gpio_init_9
//   48 		 else
//   49 			  GPIO_PDOR_REG(port) &= ~(1<<index);
??gpio_init_8:
        LDR      R2,[R0, #+0]
        MOVS     R3,#+1
        LSLS     R1,R3,R1
        BICS     R1,R2,R1
        STR      R1,[R0, #+0]
        B.N      ??gpio_init_9
//   50      }
//   51          
//   52      else
//   53          GPIO_PDDR_REG(port) &= ~(1<<index);
??gpio_init_7:
        LDR      R2,[R0, #+20]
        MOVS     R3,#+1
        LSLS     R1,R3,R1
        BICS     R1,R2,R1
        STR      R1,[R0, #+20]
//   54 
//   55 }
??gpio_init_9:
        POP      {R4-R6}
        BX       LR               ;; return

        SECTION `.text`:CODE:NOROOT(2)
        SECTION_TYPE SHT_PROGBITS, 0
        DATA
??DataTable0:
        DC32     0x400ff000

        SECTION `.text`:CODE:NOROOT(2)
        SECTION_TYPE SHT_PROGBITS, 0
        DATA
??DataTable0_1:
        DC32     0x40049000

        SECTION `.text`:CODE:NOROOT(2)
        SECTION_TYPE SHT_PROGBITS, 0
        DATA
??DataTable0_2:
        DC32     0x4004a000

        SECTION `.text`:CODE:NOROOT(2)
        SECTION_TYPE SHT_PROGBITS, 0
        DATA
??DataTable0_3:
        DC32     0x4004b000

        SECTION `.text`:CODE:NOROOT(2)
        SECTION_TYPE SHT_PROGBITS, 0
        DATA
??DataTable0_4:
        DC32     0x4004c000

        SECTION `.text`:CODE:NOROOT(2)
        SECTION_TYPE SHT_PROGBITS, 0
        DATA
??DataTable0_5:
        DC32     0x4004d000
//   56 
//   57 //-------------------------------------------------------------------------* 
//   58 //函数名: gpio_ctrl                                                        *
//   59 //功  能: 设置引脚状态                                                     *
//   60 //参  数: port:端口名                                                      *
//   61 //        index:指定端口引脚                                               *
//   62 //        data: 状态,0=低电平,1=高电平                                     *
//   63 //返  回: 无                                                               *
//   64 //说  明: 无                                                               *
//   65 //-------------------------------------------------------------------------*

        SECTION `.text`:CODE:NOROOT(1)
        THUMB
//   66 void gpio_ctrl (GPIO_MemMapPtr port, int index, int data)
//   67 {
//   68     if(data == 1)//output
gpio_ctrl:
        CMP      R2,#+1
        BNE.N    ??gpio_ctrl_0
//   69          GPIO_PDOR_REG(port) |= (1<<index);
        LDR      R2,[R0, #+0]
        MOVS     R3,#+1
        LSLS     R1,R3,R1
        ORRS     R1,R1,R2
        STR      R1,[R0, #+0]
        B.N      ??gpio_ctrl_1
//   70     else
//   71          GPIO_PDOR_REG(port) &= ~(1<<index);
??gpio_ctrl_0:
        LDR      R2,[R0, #+0]
        MOVS     R3,#+1
        LSLS     R1,R3,R1
        BICS     R1,R2,R1
        STR      R1,[R0, #+0]
//   72 }
??gpio_ctrl_1:
        BX       LR               ;; return
//   73 
//   74 //-----------------------------------------------------------------------* 
//   75 //函数名: gpio_reverse                                                   *
//   76 //功  能: 改变引脚状态                                                   *
//   77 //参  数: port:端口名;                                                   *
//   78 //        index:指定端口引脚                                             *
//   79 //返  回: 无                                                             *
//   80 //说  明: 无                                                             *
//   81 //-----------------------------------------------------------------------*

        SECTION `.text`:CODE:NOROOT(1)
        THUMB
//   82 void gpio_reverse (GPIO_MemMapPtr port, int index)
//   83 {
//   84     GPIO_PDOR_REG(port) ^= (1<<index);
gpio_reverse:
        LDR      R2,[R0, #+0]
        MOVS     R3,#+1
        LSLS     R1,R3,R1
        EORS     R1,R1,R2
        STR      R1,[R0, #+0]
//   85 }
        BX       LR               ;; return
//   86 //-----------------------------------------------------------------------* 
//   87 //函数名: gpio_read                                                      *
//   88 //功  能: 检测输入引脚的状态                                             *
//   89 //参  数: port:端口名;                                                   *
//   90 //        index:指定端口引脚                                             *
//   91 //返  回: 无                                                             *
//   92 //说  明: 无                                                             *
//   93 //-----------------------------------------------------------------------*

        SECTION `.text`:CODE:NOROOT(1)
        THUMB
//   94 uint32 gpio_read(GPIO_MemMapPtr port,uint8 index)
//   95 {
//   96   uint32 a;
//   97   uint8  b;
//   98   a=GPIO_PDIR_REG(port);
gpio_read:
        LDR      R0,[R0, #+16]
//   99   b=(a&(1<<index))>>index;
        MOVS     R2,#+1
        LSLS     R2,R2,R1
        ANDS     R0,R2,R0
        LSRS     R0,R0,R1
//  100   return b;
        UXTB     R0,R0            ;; ZeroExt  R0,R0,#+24,#+24
        BX       LR               ;; return
//  101 }

        SECTION `.iar_vfe_header`:DATA:REORDER:NOALLOC:NOROOT(2)
        SECTION_TYPE SHT_PROGBITS, 0
        DATA
        DC32 0

        SECTION __DLIB_PERTHREAD:DATA:REORDER:NOROOT(0)
        SECTION_TYPE SHT_PROGBITS, 0

        SECTION __DLIB_PERTHREAD_init:DATA:REORDER:NOROOT(0)
        SECTION_TYPE SHT_PROGBITS, 0

        END
//  102 /*void hw_gpio_set(GPIO_MemMapPtr port, uint8 pin,uint8 state)
//  103 {
//  104    GPIO_MemMapPtr pt=hw_gpio_get_pt_addr(port);
//  105    if(state==0)
//  106      (GPIO_PDOR_REG(pt))&=~(1<<(pin));
//  107    else
//  108      (GPIO_PDOR_REG(pt))|=(1<<(pin));
//  109 }
//  110 uint8 hw_gpio_get(GPIO_MemMapPtr port,uint8 pin)
//  111 {
//  112   uint8 i;
//  113   GPIO_MemMapPtr pt=hw_gpio_get_pt_addr(port);
//  114   i=(((GPIO_PDOR_REG(pt))>>(pin))&1);
//  115   return i;
//  116 }
//  117 GPIO_MemMapPtr hw_gpio_get_pt_addr(GPIO_MemMapPtr port)
//  118 {
//  119    GPIO_MemMapPtr p;
//  120    switch(port)
//  121    {
//  122       case 0x400FF000u:
//  123          p = PORTA_BASE_PTR;
//  124          break;
//  125      case 0x400FF040u:
//  126          p = PORTB_BASE_PTR;
//  127          break;
//  128      case 0x400FF080u:
//  129          p = PORTC_BASE_PTR;
//  130          break;
//  131      case 0x400FF0C0u:
//  132          p = PORTD_BASE_PTR;
//  133          break;
//  134      case 0x400FF100u:
//  135          p = PORTE_BASE_PTR;
//  136          break;
//  137      default:
//  138          break;
//  139    }
//  140    return p;
//  141 }*/
//  142 
// 
// 208 bytes in section .text
// 
// 208 bytes of CODE memory
//
//Errors: none
//Warnings: none
